target datalayout = "e-m:e-p270:32:32-p271:32:32-p272:64:64-i64:64-i128:128-f80:128-n8:16:32:64-S128"
target triple = "x86_64-pc-linux-gnu"

%"class.icu_77::RegexCompile" = type { ptr, ptr, ptr, ptr, i64, i8, i8, i8, i64, i64, i32, i32, %"struct.icu_77::RegexCompile::RegexPatternChar", [100 x i16], i32, i32, i32, i8, %"class.icu_77::UnicodeString", i64, %"class.icu_77::UVector32", i32, i32, i32, i32, %"class.icu_77::UStack", %"class.icu_77::UStack", i32, ptr }
%"struct.icu_77::RegexCompile::RegexPatternChar" = type { i32, i8 }
%"class.icu_77::UnicodeString" = type { %"class.icu_77::Replaceable", %"union.icu_77::UnicodeString::StackBufferOrFields" }
%"class.icu_77::Replaceable" = type { %"class.icu_77::UObject" }
%"class.icu_77::UObject" = type { ptr }
%"union.icu_77::UnicodeString::StackBufferOrFields" = type { %struct.anon.0, [32 x i8] }
%struct.anon.0 = type { i16, i32, i32, ptr }
%"class.icu_77::UVector32" = type { %"class.icu_77::UObject", i32, i32, i32, ptr }
%"class.icu_77::UStack" = type { %"class.icu_77::UVector" }
%"class.icu_77::UVector" = type { %"class.icu_77::UObject", i32, i32, ptr, ptr, ptr }

; Function Attrs: inlinehint mustprogress uwtable
define linkonce_odr noundef ptr @_ZNK6icu_777UVector11lastElementEv(ptr noundef nonnull align 8 dereferenceable(40) %0) #3 comdat align 2 {
  %2 = alloca ptr, align 8
  store ptr %0, ptr %2, align 8, !tbaa !159
  %3 = load ptr, ptr %2, align 8
  %4 = getelementptr inbounds nuw %"class.icu_77::UVector", ptr %3, i32 0, i32 1
  %5 = load i32, ptr %4, align 8, !tbaa !160
  %6 = sub nsw i32 %5, 1
  %7 = call noundef ptr @_ZNK6icu_777UVector9elementAtEi(ptr noundef nonnull align 8 dereferenceable(40) %3, i32 noundef %6)
  ret ptr %7
}

; Function Attrs: inlinehint mustprogress uwtable
define linkonce_odr noundef i32 @_ZNK6icu_777UVector12lastElementiEv(ptr noundef nonnull align 8 dereferenceable(40) %0) #3 comdat align 2 {
  %2 = alloca ptr, align 8
  store ptr %0, ptr %2, align 8, !tbaa !159
  %3 = load ptr, ptr %2, align 8
  %4 = getelementptr inbounds nuw %"class.icu_77::UVector", ptr %3, i32 0, i32 1
  %5 = load i32, ptr %4, align 8, !tbaa !160
  %6 = sub nsw i32 %5, 1
  %7 = call noundef i32 @_ZNK6icu_777UVector10elementAtiEi(ptr noundef nonnull align 8 dereferenceable(40) %3, i32 noundef %6)
  ret i32 %7
}

; Function Attrs: inlinehint mustprogress uwtable
define linkonce_odr noundef ptr @_ZNK6icu_776UStack4peekEv(ptr noundef nonnull align 8 dereferenceable(40) %0) #3 comdat align 2 {
  %2 = alloca ptr, align 8
  store ptr %0, ptr %2, align 8, !tbaa !175
  %3 = load ptr, ptr %2, align 8
  %4 = call noundef ptr @_ZNK6icu_777UVector11lastElementEv(ptr noundef nonnull align 8 dereferenceable(40) %3)
  ret ptr %4
}

; Function Attrs: inlinehint mustprogress uwtable
define linkonce_odr noundef i32 @_ZNK6icu_776UStack5peekiEv(ptr noundef nonnull align 8 dereferenceable(40) %0) #3 comdat align 2 {
  %2 = alloca ptr, align 8
  store ptr %0, ptr %2, align 8, !tbaa !175
  %3 = load ptr, ptr %2, align 8
  %4 = call noundef i32 @_ZNK6icu_777UVector12lastElementiEv(ptr noundef nonnull align 8 dereferenceable(40) %3)
  ret i32 %4
}

; Function Attrs: mustprogress uwtable
define void @_ZN6icu_7712RegexCompile7setEvalEi(ptr noundef nonnull align 8 dereferenceable(512) %0, i32 noundef %1) #1 align 2 {
  %3 = alloca ptr, align 8
  %4 = alloca i32, align 4
  %5 = alloca ptr, align 8
  %6 = alloca ptr, align 8
  %7 = alloca i32, align 4
  %8 = alloca i32, align 4
  store ptr %0, ptr %3, align 8, !tbaa !23
  store i32 %1, ptr %4, align 4, !tbaa !14
  %9 = load ptr, ptr %3, align 8
  call void @llvm.lifetime.start.p0(i64 8, ptr %5) #13
  store ptr null, ptr %5, align 8, !tbaa !96
  call void @llvm.lifetime.start.p0(i64 8, ptr %6) #13
  store ptr null, ptr %6, align 8, !tbaa !96
  br label %10

10:                                               ; preds = %73, %2
  call void @llvm.lifetime.start.p0(i64 4, ptr %7) #13
  %11 = getelementptr inbounds nuw %"class.icu_77::RegexCompile", ptr %9, i32 0, i32 26
  %12 = call noundef i32 @_ZNK6icu_776UStack5peekiEv(ptr noundef nonnull align 8 dereferenceable(40) %11)
  store i32 %12, ptr %7, align 4, !tbaa !14
  %13 = load i32, ptr %7, align 4, !tbaa !14
  %14 = and i32 %13, -65536
  %15 = load i32, ptr %4, align 4, !tbaa !14
  %16 = and i32 %15, -65536
  %17 = icmp ult i32 %14, %16
  br i1 %17, label %18, label %19

18:                                               ; preds = %10
  store i32 2, ptr %8, align 4
  br label %71

19:                                               ; preds = %10
  %20 = getelementptr inbounds nuw %"class.icu_77::RegexCompile", ptr %9, i32 0, i32 26
  %21 = call noundef i32 @_ZN6icu_776UStack4popiEv(ptr noundef nonnull align 8 dereferenceable(40) %20)
  %22 = getelementptr inbounds nuw %"class.icu_77::RegexCompile", ptr %9, i32 0, i32 25
  %23 = call noundef ptr @_ZNK6icu_776UStack4peekEv(ptr noundef nonnull align 8 dereferenceable(40) %22)
  store ptr %23, ptr %5, align 8, !tbaa !96
  %24 = load i32, ptr %7, align 4, !tbaa !14
  switch i32 %24, label %69 [
    i32 131075, label %25
    i32 131081, label %28
    i32 262151, label %33
    i32 196612, label %33
    i32 262152, label %45
    i32 196613, label %45
    i32 262150, label %57
  ]

25:                                               ; preds = %19
  %26 = load ptr, ptr %5, align 8, !tbaa !96
  %27 = call noundef nonnull align 8 dereferenceable(200) ptr @_ZN6icu_7710UnicodeSet10complementEv(ptr noundef nonnull align 8 dereferenceable(200) %26)
  br label %70

28:                                               ; preds = %19
  %29 = load ptr, ptr %5, align 8, !tbaa !96
  %30 = call noundef nonnull align 8 dereferenceable(200) ptr @_ZN6icu_7710UnicodeSet9closeOverEi(ptr noundef nonnull align 8 dereferenceable(200) %29, i32 noundef 2)
  %31 = load ptr, ptr %5, align 8, !tbaa !96
  %32 = call noundef nonnull align 8 dereferenceable(200) ptr @_ZN6icu_7710UnicodeSet16removeAllStringsEv(ptr noundef nonnull align 8 dereferenceable(200) %31)
  br label %70

33:                                               ; preds = %19, %19
  %34 = getelementptr inbounds nuw %"class.icu_77::RegexCompile", ptr %9, i32 0, i32 25
  %35 = call noundef ptr @_ZN6icu_776UStack3popEv(ptr noundef nonnull align 8 dereferenceable(40) %34)
  %36 = getelementptr inbounds nuw %"class.icu_77::RegexCompile", ptr %9, i32 0, i32 25
  %37 = call noundef ptr @_ZNK6icu_776UStack4peekEv(ptr noundef nonnull align 8 dereferenceable(40) %36)
  store ptr %37, ptr %6, align 8, !tbaa !96
  %38 = load ptr, ptr %6, align 8, !tbaa !96
  %39 = load ptr, ptr %5, align 8, !tbaa !96
  %40 = call noundef nonnull align 8 dereferenceable(200) ptr @_ZN6icu_7710UnicodeSet9removeAllERKS0_(ptr noundef nonnull align 8 dereferenceable(200) %38, ptr noundef nonnull align 8 dereferenceable(200) %39)
  %41 = load ptr, ptr %5, align 8, !tbaa !96
  %42 = icmp eq ptr %41, null
  br i1 %42, label %44, label %43

43:                                               ; preds = %33
  call void @_ZN6icu_7710UnicodeSetD1Ev(ptr noundef nonnull align 8 dereferenceable(200) %41) #13
  call void @_ZN6icu_777UMemorydlEPv(ptr noundef %41) #13
  br label %44

44:                                               ; preds = %43, %33
  br label %70

45:                                               ; preds = %19, %19
  %46 = getelementptr inbounds nuw %"class.icu_77::RegexCompile", ptr %9, i32 0, i32 25
  %47 = call noundef ptr @_ZN6icu_776UStack3popEv(ptr noundef nonnull align 8 dereferenceable(40) %46)
  %48 = getelementptr inbounds nuw %"class.icu_77::RegexCompile", ptr %9, i32 0, i32 25
  %49 = call noundef ptr @_ZNK6icu_776UStack4peekEv(ptr noundef nonnull align 8 dereferenceable(40) %48)
  store ptr %49, ptr %6, align 8, !tbaa !96
  %50 = load ptr, ptr %6, align 8, !tbaa !96
  %51 = load ptr, ptr %5, align 8, !tbaa !96
  %52 = call noundef nonnull align 8 dereferenceable(200) ptr @_ZN6icu_7710UnicodeSet9retainAllERKS0_(ptr noundef nonnull align 8 dereferenceable(200) %50, ptr noundef nonnull align 8 dereferenceable(200) %51)
  %53 = load ptr, ptr %5, align 8, !tbaa !96
  %54 = icmp eq ptr %53, null
  br i1 %54, label %56, label %55

55:                                               ; preds = %45
  call void @_ZN6icu_7710UnicodeSetD1Ev(ptr noundef nonnull align 8 dereferenceable(200) %53) #13
  call void @_ZN6icu_777UMemorydlEPv(ptr noundef %53) #13
  br label %56

56:                                               ; preds = %55, %45
  br label %70

57:                                               ; preds = %19
  %58 = getelementptr inbounds nuw %"class.icu_77::RegexCompile", ptr %9, i32 0, i32 25
  %59 = call noundef ptr @_ZN6icu_776UStack3popEv(ptr noundef nonnull align 8 dereferenceable(40) %58)
  %60 = getelementptr inbounds nuw %"class.icu_77::RegexCompile", ptr %9, i32 0, i32 25
  %61 = call noundef ptr @_ZNK6icu_776UStack4peekEv(ptr noundef nonnull align 8 dereferenceable(40) %60)
  store ptr %61, ptr %6, align 8, !tbaa !96
  %62 = load ptr, ptr %6, align 8, !tbaa !96
  %63 = load ptr, ptr %5, align 8, !tbaa !96
  %64 = call noundef nonnull align 8 dereferenceable(200) ptr @_ZN6icu_7710UnicodeSet6addAllERKS0_(ptr noundef nonnull align 8 dereferenceable(200) %62, ptr noundef nonnull align 8 dereferenceable(200) %63)
  %65 = load ptr, ptr %5, align 8, !tbaa !96
  %66 = icmp eq ptr %65, null
  br i1 %66, label %68, label %67

67:                                               ; preds = %57
  call void @_ZN6icu_7710UnicodeSetD1Ev(ptr noundef nonnull align 8 dereferenceable(200) %65) #13
  call void @_ZN6icu_777UMemorydlEPv(ptr noundef %65) #13
  br label %68

68:                                               ; preds = %67, %57
  br label %70

69:                                               ; preds = %19
  call void @abort() #15
  unreachable

70:                                               ; preds = %68, %56, %44, %28, %25
  store i32 0, ptr %8, align 4
  br label %71

71:                                               ; preds = %70, %18
  call void @llvm.lifetime.end.p0(i64 4, ptr %7) #13
  %72 = load i32, ptr %8, align 4
  switch i32 %72, label %75 [
    i32 0, label %73
    i32 2, label %74
  ]

73:                                               ; preds = %71
  br label %10, !llvm.loop !183

74:                                               ; preds = %71
  call void @llvm.lifetime.end.p0(i64 8, ptr %6) #13
  call void @llvm.lifetime.end.p0(i64 8, ptr %5) #13
  ret void

75:                                               ; preds = %71
  unreachable
}