; Function Attrs: mustprogress uwtable
define void @_ZN6icu_7712RegexCompile7setEvalEi(ptr noundef nonnull align 8 dereferenceable(512) %0, i32 noundef %1) local_unnamed_addr #1 align 2 {
  %3 = getelementptr inbounds nuw i8, ptr %0, i64 456
  %4 = getelementptr inbounds nuw i8, ptr %0, i64 464
  %5 = load i32, ptr %4, align 8, !tbaa !85
  %6 = add nsw i32 %5, -1
  %7 = tail call noundef i32 @_ZNK6icu_777UVector10elementAtiEi(ptr noundef nonnull align 8 dereferenceable(40) %3, i32 noundef %6)
  %8 = and i32 %7, -65536
  %9 = and i32 %1, -65536
  %10 = icmp ult i32 %8, %9
  br i1 %10, label %._crit_edge, label %.lr.ph

.lr.ph:                                           ; preds = %2
  %11 = getelementptr inbounds nuw i8, ptr %0, i64 416
  %12 = getelementptr inbounds nuw i8, ptr %0, i64 424
  br label %13

13:                                               ; preds = %.lr.ph, %43
  %14 = phi i32 [ %7, %.lr.ph ], [ %46, %43 ]
  %15 = tail call noundef i32 @_ZN6icu_776UStack4popiEv(ptr noundef nonnull align 8 dereferenceable(40) %3)
  %16 = load i32, ptr %12, align 8, !tbaa !85
  %17 = add nsw i32 %16, -1
  %18 = tail call noundef ptr @_ZNK6icu_777UVector9elementAtEi(ptr noundef nonnull align 8 dereferenceable(40) %11, i32 noundef %17)
  switch i32 %14, label %42 [
    i32 131075, label %19
    i32 131081, label %21
    i32 262151, label %24
    i32 196612, label %24
    i32 262152, label %30
    i32 196613, label %30
    i32 262150, label %36
  ]

19:                                               ; preds = %13
  %20 = tail call noundef nonnull align 8 dereferenceable(200) ptr @_ZN6icu_7710UnicodeSet10complementEv(ptr noundef nonnull align 8 dereferenceable(200) %18)
  br label %43

21:                                               ; preds = %13
  %22 = tail call noundef nonnull align 8 dereferenceable(200) ptr @_ZN6icu_7710UnicodeSet9closeOverEi(ptr noundef nonnull align 8 dereferenceable(200) %18, i32 noundef 2)
  %23 = tail call noundef nonnull align 8 dereferenceable(200) ptr @_ZN6icu_7710UnicodeSet16removeAllStringsEv(ptr noundef nonnull align 8 dereferenceable(200) %18)
  br label %43

24:                                               ; preds = %13, %13
  %25 = tail call noundef ptr @_ZN6icu_776UStack3popEv(ptr noundef nonnull align 8 dereferenceable(40) %11)
  %26 = load i32, ptr %12, align 8, !tbaa !85
  %27 = add nsw i32 %26, -1
  %28 = tail call noundef ptr @_ZNK6icu_777UVector9elementAtEi(ptr noundef nonnull align 8 dereferenceable(40) %11, i32 noundef %27)
  %29 = tail call noundef nonnull align 8 dereferenceable(200) ptr @_ZN6icu_7710UnicodeSet9removeAllERKS0_(ptr noundef nonnull align 8 dereferenceable(200) %28, ptr noundef nonnull align 8 dereferenceable(200) %18)
  tail call void @_ZN6icu_7710UnicodeSetD1Ev(ptr noundef nonnull align 8 dereferenceable(200) %18) #15
  tail call void @_ZN6icu_777UMemorydlEPv(ptr noundef nonnull %18) #15
  br label %43

30:                                               ; preds = %13, %13
  %31 = tail call noundef ptr @_ZN6icu_776UStack3popEv(ptr noundef nonnull align 8 dereferenceable(40) %11)
  %32 = load i32, ptr %12, align 8, !tbaa !85
  %33 = add nsw i32 %32, -1
  %34 = tail call noundef ptr @_ZNK6icu_777UVector9elementAtEi(ptr noundef nonnull align 8 dereferenceable(40) %11, i32 noundef %33)
  %35 = tail call noundef nonnull align 8 dereferenceable(200) ptr @_ZN6icu_7710UnicodeSet9retainAllERKS0_(ptr noundef nonnull align 8 dereferenceable(200) %34, ptr noundef nonnull align 8 dereferenceable(200) %18)
  tail call void @_ZN6icu_7710UnicodeSetD1Ev(ptr noundef nonnull align 8 dereferenceable(200) %18) #15
  tail call void @_ZN6icu_777UMemorydlEPv(ptr noundef nonnull %18) #15
  br label %43

36:                                               ; preds = %13
  %37 = tail call noundef ptr @_ZN6icu_776UStack3popEv(ptr noundef nonnull align 8 dereferenceable(40) %11)
  %38 = load i32, ptr %12, align 8, !tbaa !85
  %39 = add nsw i32 %38, -1
  %40 = tail call noundef ptr @_ZNK6icu_777UVector9elementAtEi(ptr noundef nonnull align 8 dereferenceable(40) %11, i32 noundef %39)
  %41 = tail call noundef nonnull align 8 dereferenceable(200) ptr @_ZN6icu_7710UnicodeSet6addAllERKS0_(ptr noundef nonnull align 8 dereferenceable(200) %40, ptr noundef nonnull align 8 dereferenceable(200) %18)
  tail call void @_ZN6icu_7710UnicodeSetD1Ev(ptr noundef nonnull align 8 dereferenceable(200) %18) #15
  tail call void @_ZN6icu_777UMemorydlEPv(ptr noundef nonnull %18) #15
  br label %43

42:                                               ; preds = %13
  tail call void @abort() #17
  unreachable

43:                                               ; preds = %19, %21, %24, %30, %36
  %44 = load i32, ptr %4, align 8, !tbaa !85
  %45 = add nsw i32 %44, -1
  %46 = tail call noundef i32 @_ZNK6icu_777UVector10elementAtiEi(ptr noundef nonnull align 8 dereferenceable(40) %3, i32 noundef %45)
  %47 = and i32 %46, -65536
  %48 = icmp ult i32 %47, %9
  br i1 %48, label %._crit_edge, label %13

._crit_edge:                                      ; preds = %43, %2
  ret void
}